target datalayout = "e-m:e-p270:32:32-p271:32:32-p272:64:64-i64:64-i128:128-f80:128-n8:16:32:64-S128"
target triple = "x86_64-pc-linux-gnu"

%struct.pkcs12_enc = type { i32, ptr, i32 }

@lgcyprov = internal global ptr null, align 8
@enc_nids_no_legacy = internal constant [5 x i32] [i32 419, i32 427, i32 44, i32 147, i32 146], align 16
@enc_nids_all = internal constant [16 x i32] [i32 419, i32 427, i32 44, i32 31, i32 5, i32 37, i32 10, i32 169, i32 170, i32 148, i32 149, i32 68, i32 144, i32 145, i32 147, i32 146], align 16
@enc_default = internal constant { i32, [4 x i8], ptr, i32, [4 x i8] } { i32 146, [4 x i8] zeroinitializer, ptr @.str.47, i32 1000, [4 x i8] zeroinitializer }, align 8

; Function Attrs: nounwind uwtable
define internal i32 @test_single_key_enc_alg(i32 noundef %0) #0 {
  %2 = alloca i32, align 4
  %3 = alloca %struct.pkcs12_enc, align 8
  store i32 %0, ptr %2, align 4, !tbaa !4
  call void @llvm.lifetime.start.p0(i64 24, ptr %3) #4
  %4 = load ptr, ptr @lgcyprov, align 8, !tbaa !13
  %5 = icmp eq ptr %4, null
  br i1 %5, label %6, label %12

6:                                                ; preds = %1
  %7 = load i32, ptr %2, align 4, !tbaa !4
  %8 = sext i32 %7 to i64
  %9 = getelementptr inbounds [5 x i32], ptr @enc_nids_no_legacy, i64 0, i64 %8
  %10 = load i32, ptr %9, align 4, !tbaa !4
  %11 = getelementptr inbounds nuw %struct.pkcs12_enc, ptr %3, i32 0, i32 0
  store i32 %10, ptr %11, align 8, !tbaa !17
  br label %18

12:                                               ; preds = %1
  %13 = load i32, ptr %2, align 4, !tbaa !4
  %14 = sext i32 %13 to i64
  %15 = getelementptr inbounds [16 x i32], ptr @enc_nids_all, i64 0, i64 %14
  %16 = load i32, ptr %15, align 4, !tbaa !4
  %17 = getelementptr inbounds nuw %struct.pkcs12_enc, ptr %3, i32 0, i32 0
  store i32 %16, ptr %17, align 8, !tbaa !17
  br label %18

18:                                               ; preds = %12, %6
  %19 = load ptr, ptr getelementptr inbounds nuw (%struct.pkcs12_enc, ptr @enc_default, i32 0, i32 1), align 8, !tbaa !20
  %20 = getelementptr inbounds nuw %struct.pkcs12_enc, ptr %3, i32 0, i32 1
  store ptr %19, ptr %20, align 8, !tbaa !20
  %21 = getelementptr inbounds nuw %struct.pkcs12_enc, ptr %3, i32 0, i32 2
  store i32 1000, ptr %21, align 8, !tbaa !21
  %22 = call i32 @test_single_key(ptr noundef %3)
  call void @llvm.lifetime.end.p0(i64 24, ptr %3) #4
  ret i32 %22
}