; Function Attrs: nounwind uwtable
define internal i32 @test_single_key_enc_alg(i32 noundef %0) #1 {
  %2 = alloca %struct.pkcs12_enc, align 8
  call void @llvm.lifetime.start.p0(i64 24, ptr nonnull %2) #4
  %3 = load ptr, ptr @lgcyprov, align 8, !tbaa !11
  %4 = icmp eq ptr %3, null
  %5 = sext i32 %0 to i64
  %6 = getelementptr inbounds [16 x i32], ptr @enc_nids_all, i64 0, i64 %5
  %7 = getelementptr inbounds [5 x i32], ptr @enc_nids_no_legacy, i64 0, i64 %5
  %storemerge.in = select i1 %4, ptr %7, ptr %6
  %storemerge = load i32, ptr %storemerge.in, align 4, !tbaa !13
  store i32 %storemerge, ptr %2, align 8, !tbaa !15
  %8 = getelementptr inbounds nuw i8, ptr %2, i64 8
  store ptr @.str.47, ptr %8, align 8, !tbaa !18
  %9 = getelementptr inbounds nuw i8, ptr %2, i64 16
  store i32 1000, ptr %9, align 8, !tbaa !19
  %10 = call fastcc i32 @test_single_key(ptr noundef %2)
  call void @llvm.lifetime.end.p0(i64 24, ptr nonnull %2) #4
  ret i32 %10
}